; Function Attrs: nounwind sspstrong uwtable
define i64 @rsock_intern_socktype(i32 noundef %0) local_unnamed_addr #0 {
  %2 = alloca i64, align 8
  call void @llvm.lifetime.start.p0(i64 8, ptr nonnull %2) #6
  %3 = load ptr, ptr @rsock_intern_socktype_hash, align 8, !tbaa !10
  %4 = sext i32 %0 to i64
  %5 = call i32 @rb_st_lookup(ptr noundef %3, i64 noundef %4, ptr noundef nonnull %2) #6
  %.not = icmp eq i32 %5, 0
  %6 = load i64, ptr %2, align 8
  %.0 = select i1 %.not, i64 0, i64 %6
  call void @llvm.lifetime.end.p0(i64 8, ptr nonnull %2) #6
  ret i64 %.0
}